target datalayout = "e-m:e-p270:32:32-p271:32:32-p272:64:64-i64:64-i128:128-f80:128-n8:16:32:64-S128"
target triple = "x86_64-unknown-linux-gnu"

%struct.ecc_key = type { i32, i32, i32, i32, ptr, ptr, %struct.ecc_point, [1 x %struct.sp_int], ptr }
%struct.ecc_point = type { [1 x %struct.sp_int], [1 x %struct.sp_int], [1 x %struct.sp_int] }
%struct.sp_int = type { i32, i32, [129 x i64] }

; Function Attrs: nounwind uwtable
define internal void @ForceZero(ptr noundef %mem, i32 noundef %len) #0 {
entry:
  %mem.addr = alloca ptr, align 8
  %len.addr = alloca i32, align 4
  %z = alloca ptr, align 8
  %w = alloca ptr, align 8
  %l = alloca i32, align 4
  store ptr %mem, ptr %mem.addr, align 8
  store i32 %len, ptr %len.addr, align 4
  %0 = load ptr, ptr %mem.addr, align 8
  store ptr %0, ptr %z, align 8
  %1 = load ptr, ptr %z, align 8
  %2 = ptrtoint ptr %1 to i64
  %and = and i64 %2, 7
  %sub = sub i64 8, %and
  %and1 = and i64 %sub, 7
  %conv = trunc i64 %and1 to i32
  store i32 %conv, ptr %l, align 4
  %3 = load i32, ptr %len.addr, align 4
  %4 = load i32, ptr %l, align 4
  %cmp = icmp ult i32 %3, %4
  br i1 %cmp, label %if.then, label %if.end

if.then:                                          ; preds = %entry
  %5 = load i32, ptr %len.addr, align 4
  store i32 %5, ptr %l, align 4
  br label %if.end

if.end:                                           ; preds = %if.then, %entry
  %6 = load i32, ptr %l, align 4
  %7 = load i32, ptr %len.addr, align 4
  %sub3 = sub i32 %7, %6
  store i32 %sub3, ptr %len.addr, align 4
  br label %while.cond

while.cond:                                       ; preds = %while.body, %if.end
  %8 = load i32, ptr %l, align 4
  %dec = add i32 %8, -1
  store i32 %dec, ptr %l, align 4
  %tobool = icmp ne i32 %8, 0
  br i1 %tobool, label %while.body, label %while.end

while.body:                                       ; preds = %while.cond
  %9 = load ptr, ptr %z, align 8
  %incdec.ptr = getelementptr inbounds i8, ptr %9, i32 1
  store ptr %incdec.ptr, ptr %z, align 8
  store volatile i8 0, ptr %9, align 1
  br label %while.cond, !llvm.loop !17

while.end:                                        ; preds = %while.cond
  %10 = load ptr, ptr %z, align 8
  store ptr %10, ptr %w, align 8
  br label %for.cond

for.cond:                                         ; preds = %for.inc, %while.end
  %11 = load i32, ptr %len.addr, align 4
  %conv4 = zext i32 %11 to i64
  %cmp5 = icmp uge i64 %conv4, 8
  br i1 %cmp5, label %for.body, label %for.end

for.body:                                         ; preds = %for.cond
  %12 = load ptr, ptr %w, align 8
  %incdec.ptr7 = getelementptr inbounds i64, ptr %12, i32 1
  store ptr %incdec.ptr7, ptr %w, align 8
  store volatile i64 0, ptr %12, align 8
  br label %for.inc

for.inc:                                          ; preds = %for.body
  %13 = load i32, ptr %len.addr, align 4
  %sub8 = sub i32 %13, 8
  store i32 %sub8, ptr %len.addr, align 4
  br label %for.cond, !llvm.loop !18

for.end:                                          ; preds = %for.cond
  %14 = load ptr, ptr %w, align 8
  store ptr %14, ptr %z, align 8
  br label %while.cond9

while.cond9:                                      ; preds = %while.body12, %for.end
  %15 = load i32, ptr %len.addr, align 4
  %dec10 = add i32 %15, -1
  store i32 %dec10, ptr %len.addr, align 4
  %tobool11 = icmp ne i32 %15, 0
  br i1 %tobool11, label %while.body12, label %while.end14

while.body12:                                     ; preds = %while.cond9
  %16 = load ptr, ptr %z, align 8
  %incdec.ptr13 = getelementptr inbounds i8, ptr %16, i32 1
  store ptr %incdec.ptr13, ptr %z, align 8
  store volatile i8 0, ptr %16, align 1
  br label %while.cond9, !llvm.loop !19

while.end14:                                      ; preds = %while.cond9
  ret void
}

; Function Attrs: nounwind uwtable
define i32 @wc_ecc_free(ptr noundef %key) #0 {
entry:
  %retval = alloca i32, align 4
  %key.addr = alloca ptr, align 8
  store ptr %key, ptr %key.addr, align 8
  %0 = load ptr, ptr %key.addr, align 8
  %cmp = icmp eq ptr %0, null
  br i1 %cmp, label %if.then, label %if.end

if.then:                                          ; preds = %entry
  store i32 0, ptr %retval, align 4
  br label %return

if.end:                                           ; preds = %entry
  %1 = load ptr, ptr %key.addr, align 8
  %pubkey = getelementptr inbounds %struct.ecc_key, ptr %1, i32 0, i32 6
  %x = getelementptr inbounds %struct.ecc_point, ptr %pubkey, i32 0, i32 0
  %arraydecay = getelementptr inbounds [1 x %struct.sp_int], ptr %x, i64 0, i64 0
  call void @sp_clear(ptr noundef %arraydecay)
  %2 = load ptr, ptr %key.addr, align 8
  %pubkey1 = getelementptr inbounds %struct.ecc_key, ptr %2, i32 0, i32 6
  %y = getelementptr inbounds %struct.ecc_point, ptr %pubkey1, i32 0, i32 1
  %arraydecay2 = getelementptr inbounds [1 x %struct.sp_int], ptr %y, i64 0, i64 0
  call void @sp_clear(ptr noundef %arraydecay2)
  %3 = load ptr, ptr %key.addr, align 8
  %pubkey3 = getelementptr inbounds %struct.ecc_key, ptr %3, i32 0, i32 6
  %z = getelementptr inbounds %struct.ecc_point, ptr %pubkey3, i32 0, i32 2
  %arraydecay4 = getelementptr inbounds [1 x %struct.sp_int], ptr %z, i64 0, i64 0
  call void @sp_clear(ptr noundef %arraydecay4)
  %4 = load ptr, ptr %key.addr, align 8
  %k = getelementptr inbounds %struct.ecc_key, ptr %4, i32 0, i32 7
  %arraydecay5 = getelementptr inbounds [1 x %struct.sp_int], ptr %k, i64 0, i64 0
  call void @sp_forcezero(ptr noundef %arraydecay5)
  store i32 0, ptr %retval, align 4
  br label %return

return:                                           ; preds = %if.end, %if.then
  %5 = load i32, ptr %retval, align 4
  ret i32 %5
}

; Function Attrs: nounwind uwtable
define void @wc_ecc_key_free(ptr noundef %key) #0 {
entry:
  %key.addr = alloca ptr, align 8
  %heap = alloca ptr, align 8
  %xp = alloca ptr, align 8
  store ptr %key, ptr %key.addr, align 8
  %0 = load ptr, ptr %key.addr, align 8
  %tobool = icmp ne ptr %0, null
  br i1 %tobool, label %if.then, label %if.end4

if.then:                                          ; preds = %entry
  %1 = load ptr, ptr %key.addr, align 8
  %heap1 = getelementptr inbounds %struct.ecc_key, ptr %1, i32 0, i32 5
  %2 = load ptr, ptr %heap1, align 8
  store ptr %2, ptr %heap, align 8
  %3 = load ptr, ptr %key.addr, align 8
  %call = call i32 @wc_ecc_free(ptr noundef %3)
  %4 = load ptr, ptr %key.addr, align 8
  call void @ForceZero(ptr noundef %4, i32 noundef 4200)
  %5 = load ptr, ptr %key.addr, align 8
  store ptr %5, ptr %xp, align 8
  %6 = load ptr, ptr %xp, align 8
  %tobool2 = icmp ne ptr %6, null
  br i1 %tobool2, label %if.then3, label %if.end

if.then3:                                         ; preds = %if.then
  %7 = load ptr, ptr %xp, align 8
  call void @wolfSSL_Free(ptr noundef %7)
  br label %if.end

if.end:                                           ; preds = %if.then3, %if.then
  br label %if.end4

if.end4:                                          ; preds = %if.end, %entry
  ret void
}