; Function Attrs: nounwind uwtable
define void @wc_ecc_key_free(ptr noundef %key) local_unnamed_addr #2 {
entry:
  %tobool.not = icmp eq ptr %key, null
  br i1 %tobool.not, label %if.end4, label %wc_ecc_free.exit

wc_ecc_free.exit:                                 ; preds = %entry
  %pubkey.i = getelementptr inbounds nuw i8, ptr %key, i64 32
  tail call void @sp_clear(ptr noundef nonnull %pubkey.i) #19
  %y.i = getelementptr inbounds nuw i8, ptr %key, i64 1072
  tail call void @sp_clear(ptr noundef nonnull %y.i) #19
  %z.i = getelementptr inbounds nuw i8, ptr %key, i64 2112
  tail call void @sp_clear(ptr noundef nonnull %z.i) #19
  %k.i = getelementptr inbounds nuw i8, ptr %key, i64 3152
  tail call void @sp_forcezero(ptr noundef nonnull %k.i) #19
  %0 = ptrtoint ptr %key to i64
  %1 = trunc i64 %0 to i32
  %2 = sub i32 0, %1
  %conv.i = and i32 %2, 7
  %sub3.i = sub nuw nsw i32 4200, %conv.i
  %tobool.not12.i = icmp eq i32 %conv.i, 0
  br i1 %tobool.not12.i, label %for.body.i.preheader, label %while.body.i

for.body.i.preheader:                             ; preds = %while.body.i, %wc_ecc_free.exit
  %w.017.i.ph = phi ptr [ %key, %wc_ecc_free.exit ], [ %incdec.ptr.i, %while.body.i ]
  br label %for.body.i

while.body.i:                                     ; preds = %wc_ecc_free.exit, %while.body.i
  %l.114.i = phi i32 [ %dec.i, %while.body.i ], [ %conv.i, %wc_ecc_free.exit ]
  %z.013.i = phi ptr [ %incdec.ptr.i, %while.body.i ], [ %key, %wc_ecc_free.exit ]
  %dec.i = add nsw i32 %l.114.i, -1
  %incdec.ptr.i = getelementptr inbounds nuw i8, ptr %z.013.i, i64 1
  store volatile i8 0, ptr %z.013.i, align 1
  %tobool.not.i = icmp eq i32 %dec.i, 0
  br i1 %tobool.not.i, label %for.body.i.preheader, label %while.body.i, !llvm.loop !18

while.cond9.preheader.i:                          ; preds = %for.body.i
  %tobool11.not20.i = icmp eq i32 %sub8.i, 0
  br i1 %tobool11.not20.i, label %ForceZero.exit, label %while.body12.i

for.body.i:                                       ; preds = %for.body.i.preheader, %for.body.i
  %w.017.i = phi ptr [ %incdec.ptr7.i, %for.body.i ], [ %w.017.i.ph, %for.body.i.preheader ]
  %len.addr.016.i = phi i32 [ %sub8.i, %for.body.i ], [ %sub3.i, %for.body.i.preheader ]
  %incdec.ptr7.i = getelementptr inbounds nuw i8, ptr %w.017.i, i64 8
  store volatile i64 0, ptr %w.017.i, align 8
  %sub8.i = add nsw i32 %len.addr.016.i, -8
  %cmp5.i = icmp ugt i32 %sub8.i, 7
  br i1 %cmp5.i, label %for.body.i, label %while.cond9.preheader.i, !llvm.loop !16

while.body12.i:                                   ; preds = %while.cond9.preheader.i, %while.body12.i
  %z.122.i = phi ptr [ %incdec.ptr13.i, %while.body12.i ], [ %incdec.ptr7.i, %while.cond9.preheader.i ]
  %len.addr.121.i = phi i32 [ %dec10.i, %while.body12.i ], [ %sub8.i, %while.cond9.preheader.i ]
  %dec10.i = add i32 %len.addr.121.i, -1
  %incdec.ptr13.i = getelementptr inbounds nuw i8, ptr %z.122.i, i64 1
  store volatile i8 0, ptr %z.122.i, align 1
  %tobool11.not.i = icmp eq i32 %dec10.i, 0
  br i1 %tobool11.not.i, label %ForceZero.exit, label %while.body12.i, !llvm.loop !17

ForceZero.exit:                                   ; preds = %while.body12.i, %while.cond9.preheader.i
  tail call void @wolfSSL_Free(ptr noundef nonnull %key) #19
  br label %if.end4

if.end4:                                          ; preds = %ForceZero.exit, %entry
  ret void
}